target datalayout = "e-m:e-p270:32:32-p271:32:32-p272:64:64-i64:64-i128:128-f80:128-n8:16:32:64-S128"
target triple = "x86_64-pc-linux-gnu"

%class.ThreadShadow = type <{ ptr, ptr, ptr, i32, [4 x i8] }>
%class.JVMCIEnv = type { ptr, i8, i8, ptr, i8, i8, ptr, i32, i32, ptr, ptr }
%class.JVMCIObject = type <{ ptr, i8, [7 x i8] }>

@.str = private unnamed_addr constant [41 x i8] c"src/hotspot/share/jvmci/jvmciRuntime.cpp\00", align 1

; Function Attrs: mustprogress nounwind uwtable
define linkonce_odr hidden noundef zeroext i1 @_ZNK12ThreadShadow21has_pending_exceptionEv(ptr noundef nonnull align 8 dereferenceable(28) %0) #1 comdat align 2 {
  %2 = alloca ptr, align 8
  store ptr %0, ptr %2, align 8
  %3 = load ptr, ptr %2, align 8
  %4 = getelementptr inbounds %class.ThreadShadow, ptr %3, i32 0, i32 1
  %5 = load ptr, ptr %4, align 8
  %6 = icmp ne ptr %5, null
  ret i1 %6
}

; Function Attrs: mustprogress nounwind uwtable
define hidden void @_ZN12JVMCIRuntime16call_getCompilerEP10JavaThread(ptr noundef nonnull align 8 dereferenceable(93) %0, ptr noundef %1) #1 align 2 {
  %3 = alloca ptr, align 8
  %4 = alloca ptr, align 8
  %5 = alloca %class.JVMCIEnv, align 8
  %6 = alloca ptr, align 8
  %7 = alloca i32, align 4
  %8 = alloca %class.JVMCIObject, align 8
  %9 = alloca %class.JVMCIObject, align 8
  %10 = alloca %class.JVMCIObject, align 8
  store ptr %0, ptr %3, align 8
  store ptr %1, ptr %4, align 8
  %11 = load ptr, ptr %3, align 8
  %12 = load ptr, ptr %4, align 8
  call void @_ZN8JVMCIEnvC1EP10JavaThreadPKci(ptr noundef nonnull align 8 dereferenceable(64) %5, ptr noundef %12, ptr noundef @.str, i32 noundef 748)
  store ptr %5, ptr %6, align 8
  %13 = load ptr, ptr %6, align 8
  %14 = load ptr, ptr %4, align 8
  call void @_ZN8JVMCIEnv10check_initEP10JavaThread(ptr noundef nonnull align 8 dereferenceable(64) %13, ptr noundef %14)
  %15 = load ptr, ptr %4, align 8
  %16 = call noundef zeroext i1 @_ZNK12ThreadShadow21has_pending_exceptionEv(ptr noundef nonnull align 8 dereferenceable(28) %15)
  br i1 %16, label %17, label %18

17:                                               ; preds = %2
  store i32 1, ptr %7, align 4
  br label %52

18:                                               ; preds = %2
  %19 = load ptr, ptr %6, align 8
  %20 = call { ptr, i8 } @_ZN12JVMCIRuntime23get_HotSpotJVMCIRuntimeEP8JVMCIEnv(ptr noundef nonnull align 8 dereferenceable(93) %11, ptr noundef %19)
  %21 = getelementptr inbounds { ptr, i8 }, ptr %8, i32 0, i32 0
  %22 = extractvalue { ptr, i8 } %20, 0
  store ptr %22, ptr %21, align 8
  %23 = getelementptr inbounds { ptr, i8 }, ptr %8, i32 0, i32 1
  %24 = extractvalue { ptr, i8 } %20, 1
  store i8 %24, ptr %23, align 8
  %25 = load ptr, ptr %6, align 8
  %26 = call noundef zeroext i8 @_ZN8JVMCIEnv21has_pending_exceptionEv(ptr noundef nonnull align 8 dereferenceable(64) %25)
  %27 = icmp ne i8 %26, 0
  br i1 %27, label %28, label %29

28:                                               ; preds = %18
  store i32 1, ptr %7, align 4
  br label %52

29:                                               ; preds = %18
  %30 = load ptr, ptr %6, align 8
  call void @_ZN12JVMCIRuntime10initializeEP8JVMCIEnv(ptr noundef nonnull align 8 dereferenceable(93) %11, ptr noundef %30)
  %31 = load ptr, ptr %6, align 8
  %32 = call noundef zeroext i8 @_ZN8JVMCIEnv21has_pending_exceptionEv(ptr noundef nonnull align 8 dereferenceable(64) %31)
  %33 = icmp ne i8 %32, 0
  br i1 %33, label %34, label %35

34:                                               ; preds = %29
  store i32 1, ptr %7, align 4
  br label %52

35:                                               ; preds = %29
  %36 = load ptr, ptr %6, align 8
  call void @llvm.memcpy.p0.p0.i64(ptr align 8 %9, ptr align 8 %8, i64 16, i1 false)
  %37 = load ptr, ptr %6, align 8
  %38 = getelementptr inbounds { ptr, i8 }, ptr %9, i32 0, i32 0
  %39 = load ptr, ptr %38, align 8
  %40 = getelementptr inbounds { ptr, i8 }, ptr %9, i32 0, i32 1
  %41 = load i8, ptr %40, align 8
  %42 = call { ptr, i8 } @_ZN8JVMCIEnv36call_HotSpotJVMCIRuntime_getCompilerE11JVMCIObjectPS_(ptr noundef nonnull align 8 dereferenceable(64) %36, ptr %39, i8 %41, ptr noundef %37)
  %43 = getelementptr inbounds { ptr, i8 }, ptr %10, i32 0, i32 0
  %44 = extractvalue { ptr, i8 } %42, 0
  store ptr %44, ptr %43, align 8
  %45 = getelementptr inbounds { ptr, i8 }, ptr %10, i32 0, i32 1
  %46 = extractvalue { ptr, i8 } %42, 1
  store i8 %46, ptr %45, align 8
  %47 = load ptr, ptr %6, align 8
  %48 = call noundef zeroext i8 @_ZN8JVMCIEnv21has_pending_exceptionEv(ptr noundef nonnull align 8 dereferenceable(64) %47)
  %49 = icmp ne i8 %48, 0
  br i1 %49, label %50, label %51

50:                                               ; preds = %35
  store i32 1, ptr %7, align 4
  br label %52

51:                                               ; preds = %35
  store i32 0, ptr %7, align 4
  br label %52

52:                                               ; preds = %51, %50, %34, %28, %17
  call void @_ZN8JVMCIEnvD1Ev(ptr noundef nonnull align 8 dereferenceable(64) %5) #11
  %53 = load i32, ptr %7, align 4
  switch i32 %53, label %55 [
    i32 0, label %54
    i32 1, label %54
  ]

54:                                               ; preds = %52, %52
  ret void

55:                                               ; preds = %52
  unreachable
}