; Function Attrs: mustprogress nounwind uwtable
define hidden void @_ZN12JVMCIRuntime16call_getCompilerEP10JavaThread(ptr nocapture noundef nonnull align 8 dereferenceable(93) %0, ptr noundef %1) local_unnamed_addr #0 align 2 {
  %3 = alloca %class.JVMCIEnv, align 8
  call void @_ZN8JVMCIEnvC1EP10JavaThreadPKci(ptr noundef nonnull align 8 dereferenceable(64) %3, ptr noundef %1, ptr noundef nonnull @.str, i32 noundef 748) #15
  call void @_ZN8JVMCIEnv10check_initEP10JavaThread(ptr noundef nonnull align 8 dereferenceable(64) %3, ptr noundef %1) #15
  %4 = getelementptr inbounds i8, ptr %1, i64 8
  %5 = load ptr, ptr %4, align 8
  %.not17 = icmp eq ptr %5, null
  br i1 %.not17, label %6, label %16

6:                                                ; preds = %2
  %7 = call { ptr, i8 } @_ZN12JVMCIRuntime23get_HotSpotJVMCIRuntimeEP8JVMCIEnv(ptr noundef nonnull align 8 dereferenceable(93) %0, ptr noundef nonnull %3)
  %8 = extractvalue { ptr, i8 } %7, 0
  %9 = extractvalue { ptr, i8 } %7, 1
  %10 = call noundef zeroext i8 @_ZN8JVMCIEnv21has_pending_exceptionEv(ptr noundef nonnull align 8 dereferenceable(64) %3) #15
  %.not = icmp eq i8 %10, 0
  br i1 %.not, label %11, label %16

11:                                               ; preds = %6
  call void @_ZN12JVMCIRuntime10initializeEP8JVMCIEnv(ptr noundef nonnull align 8 dereferenceable(93) %0, ptr noundef nonnull %3)
  %12 = call noundef zeroext i8 @_ZN8JVMCIEnv21has_pending_exceptionEv(ptr noundef nonnull align 8 dereferenceable(64) %3) #15
  %.not15 = icmp eq i8 %12, 0
  br i1 %.not15, label %13, label %16

13:                                               ; preds = %11
  %14 = call { ptr, i8 } @_ZN8JVMCIEnv36call_HotSpotJVMCIRuntime_getCompilerE11JVMCIObjectPS_(ptr noundef nonnull align 8 dereferenceable(64) %3, ptr %8, i8 %9, ptr noundef nonnull %3) #15
  %15 = call noundef zeroext i8 @_ZN8JVMCIEnv21has_pending_exceptionEv(ptr noundef nonnull align 8 dereferenceable(64) %3) #15
  br label %16

16:                                               ; preds = %13, %11, %6, %2
  call void @_ZN8JVMCIEnvD1Ev(ptr noundef nonnull align 8 dereferenceable(64) %3) #15
  ret void
}